target datalayout = "e-m:e-p270:32:32-p271:32:32-p272:64:64-i64:64-i128:128-f80:128-n8:16:32:64-S128"
target triple = "x86_64-pc-linux-gnu"

@.str.13 = private unnamed_addr constant [9 x i8] c"OT_Unset\00", align 1
@.str.14 = private unnamed_addr constant [8 x i8] c"OT_None\00", align 1
@.str.15 = private unnamed_addr constant [11 x i8] c"OT_Address\00", align 1
@.str.16 = private unnamed_addr constant [10 x i8] c"OT_Offset\00", align 1
@.str.17 = private unnamed_addr constant [22 x i8] c"OT_FactoredCodeOffset\00", align 1
@.str.18 = private unnamed_addr constant [24 x i8] c"OT_SignedFactDataOffset\00", align 1
@.str.19 = private unnamed_addr constant [26 x i8] c"OT_UnsignedFactDataOffset\00", align 1
@.str.20 = private unnamed_addr constant [12 x i8] c"OT_Register\00", align 1
@.str.21 = private unnamed_addr constant [16 x i8] c"OT_AddressSpace\00", align 1
@.str.22 = private unnamed_addr constant [14 x i8] c"OT_Expression\00", align 1
@.str.23 = private unnamed_addr constant [34 x i8] c"<unknown CFIProgram::OperandType>\00", align 1

; Function Attrs: mustprogress nounwind uwtable
define dso_local noundef ptr @_ZN4llvm5dwarf10CFIProgram17operandTypeStringENS1_11OperandTypeE(i32 noundef %0) #0 align 2 {
  %2 = alloca ptr, align 8
  %3 = alloca i32, align 4
  store i32 %0, ptr %3, align 4
  %4 = load i32, ptr %3, align 4
  switch i32 %4, label %15 [
    i32 0, label %5
    i32 1, label %6
    i32 2, label %7
    i32 3, label %8
    i32 4, label %9
    i32 5, label %10
    i32 6, label %11
    i32 7, label %12
    i32 8, label %13
    i32 9, label %14
  ]

5:                                                ; preds = %1
  store ptr @.str.13, ptr %2, align 8
  br label %16

6:                                                ; preds = %1
  store ptr @.str.14, ptr %2, align 8
  br label %16

7:                                                ; preds = %1
  store ptr @.str.15, ptr %2, align 8
  br label %16

8:                                                ; preds = %1
  store ptr @.str.16, ptr %2, align 8
  br label %16

9:                                                ; preds = %1
  store ptr @.str.17, ptr %2, align 8
  br label %16

10:                                               ; preds = %1
  store ptr @.str.18, ptr %2, align 8
  br label %16

11:                                               ; preds = %1
  store ptr @.str.19, ptr %2, align 8
  br label %16

12:                                               ; preds = %1
  store ptr @.str.20, ptr %2, align 8
  br label %16

13:                                               ; preds = %1
  store ptr @.str.21, ptr %2, align 8
  br label %16

14:                                               ; preds = %1
  store ptr @.str.22, ptr %2, align 8
  br label %16

15:                                               ; preds = %1
  store ptr @.str.23, ptr %2, align 8
  br label %16

16:                                               ; preds = %15, %14, %13, %12, %11, %10, %9, %8, %7, %6, %5
  %17 = load ptr, ptr %2, align 8
  ret ptr %17
}